target datalayout = "e-m:e-p270:32:32-p271:32:32-p272:64:64-i64:64-i128:128-f80:128-n8:16:32:64-S128"
target triple = "x86_64-pc-linux-gnu"

; Function Attrs: nounwind uwtable
define internal void @decor_c(ptr noundef %0, ptr noundef %1, i32 noundef %2, i64 noundef %3) #1 {
  %5 = alloca ptr, align 8
  %6 = alloca ptr, align 8
  %7 = alloca i32, align 4
  %8 = alloca i64, align 8
  %9 = alloca i32, align 4
  store ptr %0, ptr %5, align 8, !tbaa !28
  store ptr %1, ptr %6, align 8, !tbaa !28
  store i32 %2, ptr %7, align 4, !tbaa !34
  store i64 %3, ptr %8, align 8, !tbaa !32
  call void @llvm.lifetime.start.p0(i64 4, ptr %9) #7
  store i32 0, ptr %9, align 4, !tbaa !34
  br label %10

10:                                               ; preds = %31, %4
  %11 = load i32, ptr %9, align 4, !tbaa !34
  %12 = sext i32 %11 to i64
  %13 = load i64, ptr %8, align 8, !tbaa !32
  %14 = icmp slt i64 %12, %13
  br i1 %14, label %15, label %34

15:                                               ; preds = %10
  %16 = load ptr, ptr %6, align 8, !tbaa !28
  %17 = load i32, ptr %9, align 4, !tbaa !34
  %18 = sext i32 %17 to i64
  %19 = getelementptr inbounds i32, ptr %16, i64 %18
  %20 = load i32, ptr %19, align 4, !tbaa !34
  %21 = load i32, ptr %7, align 4, !tbaa !34
  %22 = mul i32 %20, %21
  %23 = add i32 %22, 4
  %24 = ashr i32 %23, 3
  %25 = load ptr, ptr %5, align 8, !tbaa !28
  %26 = load i32, ptr %9, align 4, !tbaa !34
  %27 = sext i32 %26 to i64
  %28 = getelementptr inbounds i32, ptr %25, i64 %27
  %29 = load i32, ptr %28, align 4, !tbaa !34
  %30 = add i32 %29, %24
  store i32 %30, ptr %28, align 4, !tbaa !34
  br label %31

31:                                               ; preds = %15
  %32 = load i32, ptr %9, align 4, !tbaa !34
  %33 = add nsw i32 %32, 1
  store i32 %33, ptr %9, align 4, !tbaa !34
  br label %10, !llvm.loop !74

34:                                               ; preds = %10
  call void @llvm.lifetime.end.p0(i64 4, ptr %9) #7
  ret void
}