; Function Attrs: nofree norecurse nosync nounwind memory(argmem: readwrite) uwtable
define internal void @decor_c(ptr noundef captures(none) %0, ptr noundef readonly captures(none) %1, i32 noundef %2, i64 noundef %3) #3 {
  %5 = icmp sgt i64 %3, 0
  br i1 %5, label %.lr.ph, label %._crit_edge

.lr.ph:                                           ; preds = %4, %.lr.ph
  %indvars.iv = phi i64 [ %indvars.iv.next, %.lr.ph ], [ 0, %4 ]
  %6 = getelementptr inbounds nuw i32, ptr %1, i64 %indvars.iv
  %7 = load i32, ptr %6, align 4, !tbaa !23
  %8 = mul i32 %7, %2
  %9 = add i32 %8, 4
  %10 = ashr i32 %9, 3
  %11 = getelementptr inbounds nuw i32, ptr %0, i64 %indvars.iv
  %12 = load i32, ptr %11, align 4, !tbaa !23
  %13 = add i32 %10, %12
  store i32 %13, ptr %11, align 4, !tbaa !23
  %indvars.iv.next = add nuw nsw i64 %indvars.iv, 1
  %exitcond.not = icmp eq i64 %indvars.iv.next, %3
  br i1 %exitcond.not, label %._crit_edge, label %.lr.ph, !llvm.loop !60

._crit_edge:                                      ; preds = %.lr.ph, %4
  ret void
}